target datalayout = "e-m:e-p270:32:32-p271:32:32-p272:64:64-i64:64-i128:128-f80:128-n8:16:32:64-S128"
target triple = "x86_64-pc-linux-gnu"

%"class.std::__cxx11::basic_string" = type { %"struct.std::__cxx11::basic_string<char>::_Alloc_hider", i64, %union.anon }
%"struct.std::__cxx11::basic_string<char>::_Alloc_hider" = type { ptr }
%union.anon = type { i64, [8 x i8] }
%"class.rocksdb::CuckooTableBuilder" = type <{ %"class.rocksdb::TableBuilder", i32, [4 x i8], ptr, double, i32, i32, i32, [4 x i8], i64, i8, i8, i8, [5 x i8], i64, i64, %"class.std::__cxx11::basic_string", %"class.std::__cxx11::basic_string", i64, i64, %"class.rocksdb::Status", %"class.rocksdb::IOStatus", %"struct.rocksdb::TableProperties", ptr, i8, i8, [6 x i8], ptr, %"class.std::__cxx11::basic_string", %"class.std::__cxx11::basic_string", i8, [7 x i8] }>
%"class.rocksdb::TableBuilder" = type { ptr }
%"class.rocksdb::Status" = type { i8, i8, i8, i8, i8, i8, %"class.std::unique_ptr" }
%"class.std::unique_ptr" = type { %"struct.std::__uniq_ptr_data" }
%"struct.std::__uniq_ptr_data" = type { %"class.std::__uniq_ptr_impl" }
%"class.std::__uniq_ptr_impl" = type { %"class.std::tuple" }
%"class.std::tuple" = type { %"struct.std::_Tuple_impl" }
%"struct.std::_Tuple_impl" = type { %"struct.std::_Head_base.4" }
%"struct.std::_Head_base.4" = type { ptr }
%"class.rocksdb::IOStatus" = type { %"class.rocksdb::Status" }
%"struct.rocksdb::TableProperties" = type { i64, i64, i64, i64, i64, i64, i64, i64, i64, i64, i64, i64, i64, i64, i64, i64, i64, i64, i64, i64, i64, i64, i64, i64, i64, i64, i64, i64, i64, %"class.std::__cxx11::basic_string", %"class.std::__cxx11::basic_string", %"class.std::__cxx11::basic_string", %"class.std::__cxx11::basic_string", %"class.std::__cxx11::basic_string", %"class.std::__cxx11::basic_string", %"class.std::__cxx11::basic_string", %"class.std::__cxx11::basic_string", %"class.std::__cxx11::basic_string", %"class.std::__cxx11::basic_string", %"class.std::__cxx11::basic_string", %"class.std::__cxx11::basic_string", %"class.std::map", %"class.std::map" }
%"class.std::map" = type { %"class.std::_Rb_tree" }
%"class.std::_Rb_tree" = type { %"struct.std::_Rb_tree<std::__cxx11::basic_string<char>, std::pair<const std::__cxx11::basic_string<char>, std::__cxx11::basic_string<char>>, std::_Select1st<std::pair<const std::__cxx11::basic_string<char>, std::__cxx11::basic_string<char>>>, std::less<std::__cxx11::basic_string<char>>>::_Rb_tree_impl" }
%"struct.std::_Rb_tree<std::__cxx11::basic_string<char>, std::pair<const std::__cxx11::basic_string<char>, std::__cxx11::basic_string<char>>, std::_Select1st<std::pair<const std::__cxx11::basic_string<char>, std::__cxx11::basic_string<char>>>, std::less<std::__cxx11::basic_string<char>>>::_Rb_tree_impl" = type { [8 x i8], %"struct.std::_Rb_tree_header" }
%"struct.std::_Rb_tree_header" = type { %"struct.std::_Rb_tree_node_base", i64 }
%"struct.std::_Rb_tree_node_base" = type { i32, ptr, ptr, ptr }
%"class.rocksdb::WritableFileWriter" = type <{ %"class.std::__cxx11::basic_string", %"class.rocksdb::FSWritableFilePtr", ptr, %"class.rocksdb::AlignedBuffer", i64, %"struct.std::atomic", %"struct.std::atomic", i64, i8, %"struct.std::atomic.44", [6 x i8], i64, i64, ptr, ptr, i32, [4 x i8], %"class.std::vector.46", %"class.std::unique_ptr.51", i8, i8, [2 x i8], i32, i8, i8, [6 x i8] }>
%"class.rocksdb::FSWritableFilePtr" = type { %"class.std::shared_ptr", %"class.std::unique_ptr.28" }
%"class.std::shared_ptr" = type { %"class.std::__shared_ptr" }
%"class.std::__shared_ptr" = type { ptr, %"class.std::__shared_count" }
%"class.std::__shared_count" = type { ptr }
%"class.std::unique_ptr.28" = type { %"struct.std::__uniq_ptr_data.29" }
%"struct.std::__uniq_ptr_data.29" = type { %"class.std::__uniq_ptr_impl.30" }
%"class.std::__uniq_ptr_impl.30" = type { %"class.std::tuple.31" }
%"class.std::tuple.31" = type { %"struct.std::_Tuple_impl.32" }
%"struct.std::_Tuple_impl.32" = type { %"struct.std::_Head_base.35" }
%"struct.std::_Head_base.35" = type { ptr }
%"class.rocksdb::AlignedBuffer" = type { i64, %"class.std::unique_ptr.36", i64, i64, ptr }
%"class.std::unique_ptr.36" = type { %"struct.std::__uniq_ptr_data.37" }
%"struct.std::__uniq_ptr_data.37" = type { %"class.std::__uniq_ptr_impl.38" }
%"class.std::__uniq_ptr_impl.38" = type { %"class.std::tuple.39" }
%"class.std::tuple.39" = type { %"struct.std::_Tuple_impl.40" }
%"struct.std::_Tuple_impl.40" = type { %"struct.std::_Tuple_impl.41", %"struct.std::_Head_base.43" }
%"struct.std::_Tuple_impl.41" = type { %"struct.std::_Head_base.42" }
%"struct.std::_Head_base.42" = type { %"class.std::function" }
%"class.std::function" = type { %"class.std::_Function_base", ptr }
%"class.std::_Function_base" = type { %"union.std::_Any_data", ptr }
%"union.std::_Any_data" = type { %"union.std::_Nocopy_types" }
%"union.std::_Nocopy_types" = type { { i64, i64 } }
%"struct.std::_Head_base.43" = type { ptr }
%"struct.std::atomic" = type { %"struct.std::__atomic_base" }
%"struct.std::__atomic_base" = type { i64 }
%"struct.std::atomic.44" = type { %"struct.std::__atomic_base.45" }
%"struct.std::__atomic_base.45" = type { i8 }
%"class.std::vector.46" = type { %"struct.std::_Vector_base.47" }
%"struct.std::_Vector_base.47" = type { %"struct.std::_Vector_base<std::shared_ptr<rocksdb::EventListener>, std::allocator<std::shared_ptr<rocksdb::EventListener>>>::_Vector_impl" }
%"struct.std::_Vector_base<std::shared_ptr<rocksdb::EventListener>, std::allocator<std::shared_ptr<rocksdb::EventListener>>>::_Vector_impl" = type { %"struct.std::_Vector_base<std::shared_ptr<rocksdb::EventListener>, std::allocator<std::shared_ptr<rocksdb::EventListener>>>::_Vector_impl_data" }
%"struct.std::_Vector_base<std::shared_ptr<rocksdb::EventListener>, std::allocator<std::shared_ptr<rocksdb::EventListener>>>::_Vector_impl_data" = type { ptr, ptr, ptr }
%"class.std::unique_ptr.51" = type { %"struct.std::__uniq_ptr_data.52" }
%"struct.std::__uniq_ptr_data.52" = type { %"class.std::__uniq_ptr_impl.53" }
%"class.std::__uniq_ptr_impl.53" = type { %"class.std::tuple.54" }
%"class.std::tuple.54" = type { %"struct.std::_Tuple_impl.55" }
%"struct.std::_Tuple_impl.55" = type { %"struct.std::_Head_base.58" }
%"struct.std::_Head_base.58" = type { ptr }

; Function Attrs: noinline noreturn nounwind uwtable
define linkonce_odr hidden void @__clang_call_terminate(ptr noundef %0) #11 comdat {
  %2 = call ptr @__cxa_begin_catch(ptr %0) #5
  call void @_ZSt9terminatev() #19
  unreachable
}

; Function Attrs: mustprogress nounwind uwtable
define linkonce_odr noundef i32 @_ZStanSt12memory_orderSt23__memory_order_modifier(i32 noundef %0, i32 noundef %1) #4 comdat {
  %3 = alloca i32, align 4
  %4 = alloca i32, align 4
  store i32 %0, ptr %3, align 4, !tbaa !449
  store i32 %1, ptr %4, align 4, !tbaa !451
  %5 = load i32, ptr %3, align 4, !tbaa !449
  %6 = load i32, ptr %4, align 4, !tbaa !451
  %7 = and i32 %5, %6
  ret i32 %7
}

; Function Attrs: alwaysinline mustprogress nounwind uwtable
define linkonce_odr noundef i64 @_ZNKSt13__atomic_baseImE4loadESt12memory_order(ptr noundef nonnull align 8 dereferenceable(8) %0, i32 noundef %1) #16 comdat align 2 personality ptr @__gxx_personality_v0 {
  %3 = alloca ptr, align 8
  %4 = alloca i32, align 4
  %5 = alloca i32, align 4
  %6 = alloca i64, align 8
  store ptr %0, ptr %3, align 8, !tbaa !447
  store i32 %1, ptr %4, align 4, !tbaa !449
  %7 = load ptr, ptr %3, align 8
  call void @llvm.lifetime.start.p0(i64 4, ptr %5) #5
  %8 = load i32, ptr %4, align 4, !tbaa !449
  %9 = invoke noundef i32 @_ZStanSt12memory_orderSt23__memory_order_modifier(i32 noundef %8, i32 noundef 65535)
          to label %10 unwind label %27

10:                                               ; preds = %2
  store i32 %9, ptr %5, align 4, !tbaa !449
  br label %11

11:                                               ; preds = %10
  br label %12

12:                                               ; preds = %11
  br label %13

13:                                               ; preds = %12
  br label %14

14:                                               ; preds = %13
  br label %15

15:                                               ; preds = %14
  br label %16

16:                                               ; preds = %15
  %17 = getelementptr inbounds nuw %"struct.std::__atomic_base", ptr %7, i32 0, i32 0
  %18 = load i32, ptr %4, align 4, !tbaa !449
  switch i32 %18, label %19 [
    i32 1, label %21
    i32 2, label %21
    i32 5, label %23
  ]

19:                                               ; preds = %16
  %20 = load atomic i64, ptr %17 monotonic, align 8
  store i64 %20, ptr %6, align 8
  br label %25

21:                                               ; preds = %16, %16
  %22 = load atomic i64, ptr %17 acquire, align 8
  store i64 %22, ptr %6, align 8
  br label %25

23:                                               ; preds = %16
  %24 = load atomic i64, ptr %17 seq_cst, align 8
  store i64 %24, ptr %6, align 8
  br label %25

25:                                               ; preds = %23, %21, %19
  %26 = load i64, ptr %6, align 8, !tbaa !4
  call void @llvm.lifetime.end.p0(i64 4, ptr %5) #5
  ret i64 %26

27:                                               ; preds = %2
  %28 = landingpad { ptr, i32 }
          catch ptr null
  %29 = extractvalue { ptr, i32 } %28, 0
  call void @__clang_call_terminate(ptr %29) #19
  unreachable
}

; Function Attrs: mustprogress nounwind uwtable
define linkonce_odr noundef i64 @_ZNK7rocksdb18WritableFileWriter11GetFileSizeEv(ptr noundef nonnull align 8 dereferenceable(258) %0) #4 comdat align 2 {
  %2 = alloca ptr, align 8
  store ptr %0, ptr %2, align 8, !tbaa !54
  %3 = load ptr, ptr %2, align 8
  %4 = getelementptr inbounds nuw %"class.rocksdb::WritableFileWriter", ptr %3, i32 0, i32 5
  %5 = call noundef i64 @_ZNKSt13__atomic_baseImE4loadESt12memory_order(ptr noundef nonnull align 8 dereferenceable(8) %4, i32 noundef 2) #5
  ret i64 %5
}

; Function Attrs: mustprogress uwtable
define noundef i64 @_ZNK7rocksdb18CuckooTableBuilder8FileSizeEv(ptr noundef nonnull align 8 dereferenceable(993) %0) unnamed_addr #6 align 2 {
  %2 = alloca i64, align 8
  %3 = alloca ptr, align 8
  %4 = alloca i64, align 8
  store ptr %0, ptr %3, align 8, !tbaa !52
  %5 = load ptr, ptr %3, align 8
  %6 = getelementptr inbounds nuw %"class.rocksdb::CuckooTableBuilder", ptr %5, i32 0, i32 30
  %7 = load i8, ptr %6, align 8, !tbaa !108, !range !94, !noundef !95
  %8 = trunc i8 %7 to i1
  br i1 %8, label %9, label %13

9:                                                ; preds = %1
  %10 = getelementptr inbounds nuw %"class.rocksdb::CuckooTableBuilder", ptr %5, i32 0, i32 3
  %11 = load ptr, ptr %10, align 8, !tbaa !89
  %12 = call noundef i64 @_ZNK7rocksdb18WritableFileWriter11GetFileSizeEv(ptr noundef nonnull align 8 dereferenceable(258) %11)
  store i64 %12, ptr %2, align 8
  br label %62

13:                                               ; preds = %1
  %14 = getelementptr inbounds nuw %"class.rocksdb::CuckooTableBuilder", ptr %5, i32 0, i32 18
  %15 = load i64, ptr %14, align 8, !tbaa !102
  %16 = icmp eq i64 %15, 0
  br i1 %16, label %17, label %18

17:                                               ; preds = %13
  store i64 0, ptr %2, align 8
  br label %62

18:                                               ; preds = %13
  br label %19

19:                                               ; preds = %18
  %20 = getelementptr inbounds nuw %"class.rocksdb::CuckooTableBuilder", ptr %5, i32 0, i32 24
  %21 = load i8, ptr %20, align 8, !tbaa !105, !range !94, !noundef !95
  %22 = trunc i8 %21 to i1
  br i1 %22, label %23, label %37

23:                                               ; preds = %19
  %24 = getelementptr inbounds nuw %"class.rocksdb::CuckooTableBuilder", ptr %5, i32 0, i32 14
  %25 = load i64, ptr %24, align 8, !tbaa !100
  %26 = getelementptr inbounds nuw %"class.rocksdb::CuckooTableBuilder", ptr %5, i32 0, i32 15
  %27 = load i64, ptr %26, align 8, !tbaa !101
  %28 = add i64 %25, %27
  %29 = getelementptr inbounds nuw %"class.rocksdb::CuckooTableBuilder", ptr %5, i32 0, i32 18
  %30 = load i64, ptr %29, align 8, !tbaa !102
  %31 = mul i64 %28, %30
  %32 = uitofp i64 %31 to double
  %33 = getelementptr inbounds nuw %"class.rocksdb::CuckooTableBuilder", ptr %5, i32 0, i32 4
  %34 = load double, ptr %33, align 8, !tbaa !90
  %35 = fdiv double %32, %34
  %36 = fptoui double %35 to i64
  store i64 %36, ptr %2, align 8
  br label %62

37:                                               ; preds = %19
  call void @llvm.lifetime.start.p0(i64 8, ptr %4) #5
  %38 = getelementptr inbounds nuw %"class.rocksdb::CuckooTableBuilder", ptr %5, i32 0, i32 9
  %39 = load i64, ptr %38, align 8, !tbaa !96
  store i64 %39, ptr %4, align 8, !tbaa !4
  %40 = load i64, ptr %4, align 8, !tbaa !4
  %41 = uitofp i64 %40 to double
  %42 = getelementptr inbounds nuw %"class.rocksdb::CuckooTableBuilder", ptr %5, i32 0, i32 18
  %43 = load i64, ptr %42, align 8, !tbaa !102
  %44 = add i64 %43, 1
  %45 = uitofp i64 %44 to double
  %46 = getelementptr inbounds nuw %"class.rocksdb::CuckooTableBuilder", ptr %5, i32 0, i32 4
  %47 = load double, ptr %46, align 8, !tbaa !90
  %48 = fdiv double %45, %47
  %49 = fcmp olt double %41, %48
  br i1 %49, label %50, label %53

50:                                               ; preds = %37
  %51 = load i64, ptr %4, align 8, !tbaa !4
  %52 = mul i64 %51, 2
  store i64 %52, ptr %4, align 8, !tbaa !4
  br label %53

53:                                               ; preds = %50, %37
  %54 = getelementptr inbounds nuw %"class.rocksdb::CuckooTableBuilder", ptr %5, i32 0, i32 14
  %55 = load i64, ptr %54, align 8, !tbaa !100
  %56 = getelementptr inbounds nuw %"class.rocksdb::CuckooTableBuilder", ptr %5, i32 0, i32 15
  %57 = load i64, ptr %56, align 8, !tbaa !101
  %58 = add i64 %55, %57
  %59 = load i64, ptr %4, align 8, !tbaa !4
  %60 = mul i64 %58, %59
  %61 = sub i64 %60, 1
  store i64 %61, ptr %2, align 8
  call void @llvm.lifetime.end.p0(i64 8, ptr %4) #5
  br label %62

62:                                               ; preds = %53, %23, %17, %9
  %63 = load i64, ptr %2, align 8
  ret i64 %63
}