; Function Attrs: mustprogress nofree norecurse nounwind willreturn memory(readwrite, inaccessiblemem: none) uwtable
define noundef i64 @_ZNK7rocksdb18CuckooTableBuilder8FileSizeEv(ptr noundef nonnull readonly align 8 captures(none) dereferenceable(993) %0) unnamed_addr #10 align 2 personality ptr @__gxx_personality_v0 {
  %2 = getelementptr inbounds nuw i8, ptr %0, i64 992
  %3 = load i8, ptr %2, align 8, !tbaa !70, !range !87, !noundef !88
  %4 = trunc nuw i8 %3 to i1
  br i1 %4, label %5, label %10

5:                                                ; preds = %1
  %6 = getelementptr inbounds nuw i8, ptr %0, i64 16
  %7 = load ptr, ptr %6, align 8, !tbaa !49
  %8 = getelementptr inbounds nuw i8, ptr %7, i64 144
  %9 = load atomic i64, ptr %8 acquire, align 8
  br label %48

10:                                               ; preds = %1
  %11 = getelementptr inbounds nuw i8, ptr %0, i64 144
  %12 = load i64, ptr %11, align 8, !tbaa !76
  %13 = icmp eq i64 %12, 0
  br i1 %13, label %48, label %14

14:                                               ; preds = %10
  %15 = getelementptr inbounds nuw i8, ptr %0, i64 912
  %16 = load i8, ptr %15, align 8, !tbaa !67, !range !87, !noundef !88
  %17 = trunc nuw i8 %16 to i1
  br i1 %17, label %18, label %30

18:                                               ; preds = %14
  %19 = getelementptr inbounds nuw i8, ptr %0, i64 64
  %20 = load i64, ptr %19, align 8, !tbaa !102
  %21 = getelementptr inbounds nuw i8, ptr %0, i64 72
  %22 = load i64, ptr %21, align 8, !tbaa !103
  %23 = add i64 %22, %20
  %24 = mul i64 %23, %12
  %25 = uitofp i64 %24 to double
  %26 = getelementptr inbounds nuw i8, ptr %0, i64 24
  %27 = load double, ptr %26, align 8, !tbaa !50
  %28 = fdiv double %25, %27
  %29 = fptoui double %28 to i64
  br label %48

30:                                               ; preds = %14
  %31 = getelementptr inbounds nuw i8, ptr %0, i64 48
  %32 = load i64, ptr %31, align 8, !tbaa !54
  %33 = uitofp i64 %32 to double
  %34 = add i64 %12, 1
  %35 = uitofp i64 %34 to double
  %36 = getelementptr inbounds nuw i8, ptr %0, i64 24
  %37 = load double, ptr %36, align 8, !tbaa !50
  %38 = fdiv double %35, %37
  %39 = fcmp ogt double %38, %33
  %40 = zext i1 %39 to i64
  %.0 = shl i64 %32, %40
  %41 = getelementptr inbounds nuw i8, ptr %0, i64 64
  %42 = load i64, ptr %41, align 8, !tbaa !102
  %43 = getelementptr inbounds nuw i8, ptr %0, i64 72
  %44 = load i64, ptr %43, align 8, !tbaa !103
  %45 = add i64 %44, %42
  %46 = mul i64 %.0, %45
  %47 = add i64 %46, -1
  br label %48

48:                                               ; preds = %10, %30, %18, %5
  %.04 = phi i64 [ %9, %5 ], [ %29, %18 ], [ %47, %30 ], [ 0, %10 ]
  ret i64 %.04
}